; Function Attrs: mustprogress uwtable
define noundef nonnull align 8 dereferenceable(8) ptr @_ZN32pxrInternal_v0_24__pxrReserved__lsERSoRKSt4pairINS_7SdfPathENS_17UsdStageLoadRules4RuleEE(ptr noundef nonnull align 8 dereferenceable(8) %0, ptr noundef nonnull align 4 dereferenceable(12) %1) local_unnamed_addr #0 {
  %3 = tail call noundef nonnull align 8 dereferenceable(8) ptr @_ZStlsISt11char_traitsIcEERSt13basic_ostreamIcT_ES5_PKc(ptr noundef nonnull align 8 dereferenceable(8) %0, ptr noundef nonnull @.str.2)
  %4 = tail call noundef nonnull align 8 dereferenceable(8) ptr @_ZN32pxrInternal_v0_24__pxrReserved__lsERSoRKNS_7SdfPathE(ptr noundef nonnull align 8 dereferenceable(8) %3, ptr noundef nonnull align 4 dereferenceable(8) %1)
  %5 = tail call noundef nonnull align 8 dereferenceable(8) ptr @_ZStlsISt11char_traitsIcEERSt13basic_ostreamIcT_ES5_PKc(ptr noundef nonnull align 8 dereferenceable(8) %4, ptr noundef nonnull @.str.3)
  %6 = getelementptr inbounds nuw i8, ptr %1, i64 8
  %7 = load i32, ptr %6, align 4
  switch i32 %7, label %8 [
    i32 0, label %11
    i32 1, label %.fold.split
  ]

8:                                                ; preds = %2
  %9 = icmp eq i32 %7, 2
  %10 = select i1 %9, ptr @.str.6, ptr @.str.7
  br label %11

.fold.split:                                      ; preds = %2
  br label %11

11:                                               ; preds = %2, %.fold.split, %8
  %12 = phi ptr [ @.str.4, %2 ], [ %10, %8 ], [ @.str.5, %.fold.split ]
  %13 = tail call noundef nonnull align 8 dereferenceable(8) ptr @_ZStlsISt11char_traitsIcEERSt13basic_ostreamIcT_ES5_PKc(ptr noundef nonnull align 8 dereferenceable(8) %5, ptr noundef nonnull %12)
  %14 = tail call noundef nonnull align 8 dereferenceable(8) ptr @_ZStlsISt11char_traitsIcEERSt13basic_ostreamIcT_ES5_PKc(ptr noundef nonnull align 8 dereferenceable(8) %13, ptr noundef nonnull @.str.8)
  ret ptr %14
}